; ModuleID = '37/1888.c'
source_filename = "37/1888.c"
target datalayout = "e-m:e-p270:32:32-p271:32:32-p272:64:64-i64:64-f80:128-n8:16:32:64-S128"
target triple = "x86_64-pc-linux-gnu"

@.str = private unnamed_addr constant [3 x i8] c"%d\00", align 1
@.str.1 = private unnamed_addr constant [2 x i8] c"\0A\00", align 1
@.str.2 = private unnamed_addr constant [4 x i8] c"%c\0A\00", align 1
@.str.3 = private unnamed_addr constant [4 x i8] c"no\0A\00", align 1

; Function Attrs: noinline nounwind uwtable
define dso_local i32 @main() #0 {
  %1 = alloca i32, align 4
  %2 = alloca i32, align 4
  %3 = alloca [100000 x i8], align 16
  %4 = alloca i32, align 4
  %5 = alloca i32, align 4
  %6 = alloca i32, align 4
  store i32 0, i32* %1, align 4
  %7 = call i32 (i8*, ...) @__isoc99_scanf(i8* getelementptr inbounds ([3 x i8], [3 x i8]* @.str, i64 0, i64 0), i32* %2)
  %8 = call i32 (i8*, ...) @__isoc99_scanf(i8* getelementptr inbounds ([2 x i8], [2 x i8]* @.str.1, i64 0, i64 0))
  br label %9

9:                                                ; preds = %71, %0
  %10 = load i32, i32* %2, align 4
  %11 = add nsw i32 %10, -1
  store i32 %11, i32* %2, align 4
  %12 = icmp ne i32 %10, 0
  br i1 %12, label %13, label %72

13:                                               ; preds = %9
  store i32 0, i32* %4, align 4
  %14 = getelementptr inbounds [100000 x i8], [100000 x i8]* %3, i64 0, i64 0
  %15 = call i32 (i8*, ...) bitcast (i32 (...)* @gets to i32 (i8*, ...)*)(i8* %14)
  %16 = getelementptr inbounds [100000 x i8], [100000 x i8]* %3, i64 0, i64 0
  %17 = call i64 @strlen(i8* %16) #3
  %18 = trunc i64 %17 to i32
  store i32 %18, i32* %4, align 4
  store i32 0, i32* %5, align 4
  br label %19

19:                                               ; preds = %62, %13
  %20 = load i32, i32* %5, align 4
  %21 = load i32, i32* %4, align 4
  %22 = icmp slt i32 %20, %21
  br i1 %22, label %23, label %65

23:                                               ; preds = %19
  store i32 0, i32* %6, align 4
  br label %24

24:                                               ; preds = %47, %23
  %25 = load i32, i32* %6, align 4
  %26 = load i32, i32* %4, align 4
  %27 = icmp slt i32 %25, %26
  br i1 %27, label %28, label %50

28:                                               ; preds = %24
  %29 = load i32, i32* %6, align 4
  %30 = load i32, i32* %5, align 4
  %31 = icmp eq i32 %29, %30
  br i1 %31, label %32, label %33

32:                                               ; preds = %28
  br label %47

33:                                               ; preds = %28
  %34 = load i32, i32* %6, align 4
  %35 = sext i32 %34 to i64
  %36 = getelementptr inbounds [100000 x i8], [100000 x i8]* %3, i64 0, i64 %35
  %37 = load i8, i8* %36, align 1
  %38 = sext i8 %37 to i32
  %39 = load i32, i32* %5, align 4
  %40 = sext i32 %39 to i64
  %41 = getelementptr inbounds [100000 x i8], [100000 x i8]* %3, i64 0, i64 %40
  %42 = load i8, i8* %41, align 1
  %43 = sext i8 %42 to i32
  %44 = icmp eq i32 %38, %43
  br i1 %44, label %45, label %46

45:                                               ; preds = %33
  br label %50

46:                                               ; preds = %33
  br label %47

47:                                               ; preds = %46, %32
  %48 = load i32, i32* %6, align 4
  %49 = add nsw i32 %48, 1
  store i32 %49, i32* %6, align 4
  br label %24

50:                                               ; preds = %45, %24
  %51 = load i32, i32* %6, align 4
  %52 = load i32, i32* %4, align 4
  %53 = icmp eq i32 %51, %52
  br i1 %53, label %54, label %61

54:                                               ; preds = %50
  %55 = load i32, i32* %5, align 4
  %56 = sext i32 %55 to i64
  %57 = getelementptr inbounds [100000 x i8], [100000 x i8]* %3, i64 0, i64 %56
  %58 = load i8, i8* %57, align 1
  %59 = sext i8 %58 to i32
  %60 = call i32 (i8*, ...) @printf(i8* getelementptr inbounds ([4 x i8], [4 x i8]* @.str.2, i64 0, i64 0), i32 %59)
  br label %65

61:                                               ; preds = %50
  br label %62

62:                                               ; preds = %61
  %63 = load i32, i32* %5, align 4
  %64 = add nsw i32 %63, 1
  store i32 %64, i32* %5, align 4
  br label %19

65:                                               ; preds = %54, %19
  %66 = load i32, i32* %5, align 4
  %67 = load i32, i32* %4, align 4
  %68 = icmp eq i32 %66, %67
  br i1 %68, label %69, label %71

69:                                               ; preds = %65
  %70 = call i32 (i8*, ...) @printf(i8* getelementptr inbounds ([4 x i8], [4 x i8]* @.str.3, i64 0, i64 0))
  br label %71

71:                                               ; preds = %69, %65
  br label %9

72:                                               ; preds = %9
  %73 = load i32, i32* %1, align 4
  ret i32 %73
}

declare dso_local i32 @__isoc99_scanf(i8*, ...) #1

declare dso_local i32 @gets(...) #1

; Function Attrs: nounwind readonly
declare dso_local i64 @strlen(i8*) #2

declare dso_local i32 @printf(i8*, ...) #1


!llvm.module.flags = !{!0}
!llvm.ident = !{!1}

!0 = !{i32 1, !"wchar_size", i32 4}
!1 = !{!"clang version 10.0.0-4ubuntu1 "}
