; ModuleID = 'source-C-CXX/36/1888.c'
source_filename = "source-C-CXX/36/1888.c"
target datalayout = "e-m:e-p270:32:32-p271:32:32-p272:64:64-i64:64-f80:128-n8:16:32:64-S128"
target triple = "x86_64-pc-linux-gnu"

@.str = private unnamed_addr constant [3 x i8] c"%d\00", align 1
@.str.1 = private unnamed_addr constant [2 x i8] c"\0A\00", align 1
@.str.2 = private unnamed_addr constant [4 x i8] c"%c\0A\00", align 1
@str = private unnamed_addr constant [3 x i8] c"no\00", align 1

; Function Attrs: nounwind sspstrong uwtable
define dso_local i32 @main() local_unnamed_addr #0 {
  %1 = alloca i32, align 4
  %2 = alloca [100000 x i8], align 16
  %3 = bitcast i32* %1 to i8*
  call void @llvm.lifetime.start.p0i8(i64 4, i8* nonnull %3) #6
  %4 = call i32 (i8*, ...) @__isoc99_scanf(i8* getelementptr inbounds ([3 x i8], [3 x i8]* @.str, i64 0, i64 0), i32* nonnull %1)
  %5 = call i32 (i8*, ...) @__isoc99_scanf(i8* getelementptr inbounds ([2 x i8], [2 x i8]* @.str.1, i64 0, i64 0))
  %6 = getelementptr inbounds [100000 x i8], [100000 x i8]* %2, i64 0, i64 0
  %7 = load i32, i32* %1, align 4, !tbaa !5
  %8 = add nsw i32 %7, -1
  store i32 %8, i32* %1, align 4, !tbaa !5
  %9 = icmp eq i32 %7, 0
  br i1 %9, label %55, label %10

10:                                               ; preds = %0, %51
  call void @llvm.lifetime.start.p0i8(i64 100000, i8* nonnull %6) #6
  %11 = call i32 (i8*, ...) bitcast (i32 (...)* @gets to i32 (i8*, ...)*)(i8* nonnull %6) #6
  %12 = call i64 @strlen(i8* noundef nonnull %6) #7
  %13 = trunc i64 %12 to i32
  %14 = icmp sgt i32 %13, 0
  br i1 %14, label %15, label %46

15:                                               ; preds = %10
  %16 = and i64 %12, 4294967295
  br label %17

17:                                               ; preds = %15, %31
  %18 = phi i64 [ 0, %15 ], [ %32, %31 ]
  %19 = getelementptr inbounds [100000 x i8], [100000 x i8]* %2, i64 0, i64 %18
  br label %20

20:                                               ; preds = %17, %34
  %21 = phi i64 [ 0, %17 ], [ %35, %34 ]
  %22 = icmp eq i64 %21, %18
  br i1 %22, label %34, label %23

23:                                               ; preds = %20
  %24 = getelementptr inbounds [100000 x i8], [100000 x i8]* %2, i64 0, i64 %21
  %25 = load i8, i8* %24, align 1, !tbaa !9
  %26 = load i8, i8* %19, align 1, !tbaa !9
  %27 = icmp eq i8 %25, %26
  br i1 %27, label %28, label %34

28:                                               ; preds = %23
  %29 = trunc i64 %21 to i32
  %30 = icmp eq i32 %29, %13
  br i1 %30, label %37, label %31

31:                                               ; preds = %28
  %32 = add nuw nsw i64 %18, 1
  %33 = icmp eq i64 %32, %16
  br i1 %33, label %44, label %17, !llvm.loop !10

34:                                               ; preds = %23, %20
  %35 = add nuw nsw i64 %21, 1
  %36 = icmp eq i64 %35, %16
  br i1 %36, label %37, label %20, !llvm.loop !12

37:                                               ; preds = %28, %34
  %38 = trunc i64 %18 to i32
  %39 = and i64 %18, 4294967295
  %40 = getelementptr inbounds [100000 x i8], [100000 x i8]* %2, i64 0, i64 %39
  %41 = load i8, i8* %40, align 1, !tbaa !9
  %42 = sext i8 %41 to i32
  %43 = call i32 (i8*, ...) @printf(i8* nonnull dereferenceable(1) getelementptr inbounds ([4 x i8], [4 x i8]* @.str.2, i64 0, i64 0), i32 %42)
  br label %46

44:                                               ; preds = %31
  %45 = trunc i64 %12 to i32
  br label %46

46:                                               ; preds = %44, %10, %37
  %47 = phi i32 [ %38, %37 ], [ 0, %10 ], [ %45, %44 ]
  %48 = icmp eq i32 %47, %13
  br i1 %48, label %49, label %51

49:                                               ; preds = %46
  %50 = call i32 @puts(i8* nonnull dereferenceable(1) getelementptr inbounds ([3 x i8], [3 x i8]* @str, i64 0, i64 0))
  br label %51

51:                                               ; preds = %49, %46
  call void @llvm.lifetime.end.p0i8(i64 100000, i8* nonnull %6) #6
  %52 = load i32, i32* %1, align 4, !tbaa !5
  %53 = add nsw i32 %52, -1
  store i32 %53, i32* %1, align 4, !tbaa !5
  %54 = icmp eq i32 %52, 0
  br i1 %54, label %55, label %10, !llvm.loop !13

55:                                               ; preds = %51, %0
  call void @llvm.lifetime.end.p0i8(i64 4, i8* nonnull %3) #6
  ret i32 0
}

; Function Attrs: argmemonly mustprogress nofree nosync nounwind willreturn
declare void @llvm.lifetime.start.p0i8(i64 immarg, i8* nocapture) #1

; Function Attrs: nofree nounwind
declare noundef i32 @__isoc99_scanf(i8* nocapture noundef readonly, ...) local_unnamed_addr #2

declare i32 @gets(...) local_unnamed_addr #3

; Function Attrs: argmemonly mustprogress nofree nounwind readonly willreturn
declare i64 @strlen(i8* nocapture) local_unnamed_addr #4

; Function Attrs: nofree nounwind
declare noundef i32 @printf(i8* nocapture noundef readonly, ...) local_unnamed_addr #2

; Function Attrs: argmemonly mustprogress nofree nosync nounwind willreturn
declare void @llvm.lifetime.end.p0i8(i64 immarg, i8* nocapture) #1

; Function Attrs: nofree nounwind
declare noundef i32 @puts(i8* nocapture noundef readonly) local_unnamed_addr #5


!llvm.module.flags = !{!0, !1, !2, !3}
!llvm.ident = !{!4}

!0 = !{i32 1, !"wchar_size", i32 4}
!1 = !{i32 7, !"PIC Level", i32 2}
!2 = !{i32 7, !"PIE Level", i32 2}
!3 = !{i32 7, !"uwtable", i32 1}
!4 = !{!"clang version 13.0.0"}
!5 = !{!6, !6, i64 0}
!6 = !{!"int", !7, i64 0}
!7 = !{!"omnipotent char", !8, i64 0}
!8 = !{!"Simple C/C++ TBAA"}
!9 = !{!7, !7, i64 0}
!10 = distinct !{!10, !11}
!11 = !{!"llvm.loop.mustprogress"}
!12 = distinct !{!12, !11}
!13 = distinct !{!13, !11}
